target datalayout = "e-m:e-p270:32:32-p271:32:32-p272:64:64-i64:64-i128:128-f80:128-n8:16:32:64-S128"
target triple = "x86_64-pc-linux-gnu"

%struct.RelOptInfo = type { i32, i32, ptr, double, i8, i8, i8, ptr, ptr, ptr, ptr, ptr, ptr, ptr, ptr, ptr, ptr, i32, i32, i32, i16, i16, ptr, ptr, ptr, ptr, ptr, ptr, ptr, ptr, i32, double, double, ptr, ptr, ptr, i32, i32, i32, i32, i8, ptr, ptr, ptr, ptr, ptr, %struct.QualCost, i32, ptr, i8, i8, ptr, ptr, ptr, ptr, i32, ptr, i8, ptr, ptr, ptr, ptr, ptr, ptr }
%struct.QualCost = type { double, double }

@min_parallel_table_scan_size = dso_local global i32 0, align 4
@min_parallel_index_scan_size = dso_local global i32 0, align 4

; Function Attrs: nounwind uwtable
define dso_local i32 @compute_parallel_worker(ptr noundef %0, double noundef %1, double noundef %2, i32 noundef %3) #0 {
  %5 = alloca i32, align 4
  %6 = alloca ptr, align 8
  %7 = alloca double, align 8
  %8 = alloca double, align 8
  %9 = alloca i32, align 4
  %10 = alloca i32, align 4
  %11 = alloca i32, align 4
  %12 = alloca i32, align 4
  %13 = alloca i32, align 4
  %14 = alloca i32, align 4
  %15 = alloca i32, align 4
  store ptr %0, ptr %6, align 8
  store double %1, ptr %7, align 8
  store double %2, ptr %8, align 8
  store i32 %3, ptr %9, align 4
  call void @llvm.lifetime.start.p0(i64 4, ptr %10) #8
  store i32 0, ptr %10, align 4
  %16 = load ptr, ptr %6, align 8
  %17 = getelementptr inbounds nuw %struct.RelOptInfo, ptr %16, i32 0, i32 36
  %18 = load i32, ptr %17, align 8
  %19 = icmp ne i32 %18, -1
  br i1 %19, label %20, label %24

20:                                               ; preds = %4
  %21 = load ptr, ptr %6, align 8
  %22 = getelementptr inbounds nuw %struct.RelOptInfo, ptr %21, i32 0, i32 36
  %23 = load i32, ptr %22, align 8
  store i32 %23, ptr %10, align 4
  br label %117

24:                                               ; preds = %4
  %25 = load ptr, ptr %6, align 8
  %26 = getelementptr inbounds nuw %struct.RelOptInfo, ptr %25, i32 0, i32 1
  %27 = load i32, ptr %26, align 4
  %28 = icmp eq i32 %27, 0
  br i1 %28, label %29, label %46

29:                                               ; preds = %24
  %30 = load double, ptr %7, align 8
  %31 = fcmp oge double %30, 0.000000e+00
  br i1 %31, label %32, label %37

32:                                               ; preds = %29
  %33 = load double, ptr %7, align 8
  %34 = load i32, ptr @min_parallel_table_scan_size, align 4
  %35 = sitofp i32 %34 to double
  %36 = fcmp olt double %33, %35
  br i1 %36, label %45, label %37

37:                                               ; preds = %32, %29
  %38 = load double, ptr %8, align 8
  %39 = fcmp oge double %38, 0.000000e+00
  br i1 %39, label %40, label %46

40:                                               ; preds = %37
  %41 = load double, ptr %8, align 8
  %42 = load i32, ptr @min_parallel_index_scan_size, align 4
  %43 = sitofp i32 %42 to double
  %44 = fcmp olt double %41, %43
  br i1 %44, label %45, label %46

45:                                               ; preds = %40, %32
  store i32 0, ptr %5, align 4
  store i32 1, ptr %11, align 4
  br label %128

46:                                               ; preds = %40, %37, %24
  %47 = load double, ptr %7, align 8
  %48 = fcmp oge double %47, 0.000000e+00
  br i1 %48, label %49, label %74

49:                                               ; preds = %46
  call void @llvm.lifetime.start.p0(i64 4, ptr %12) #8
  call void @llvm.lifetime.start.p0(i64 4, ptr %13) #8
  store i32 1, ptr %13, align 4
  %50 = load i32, ptr @min_parallel_table_scan_size, align 4
  %51 = icmp sgt i32 %50, 1
  br i1 %51, label %52, label %54

52:                                               ; preds = %49
  %53 = load i32, ptr @min_parallel_table_scan_size, align 4
  br label %55

54:                                               ; preds = %49
  br label %55

55:                                               ; preds = %54, %52
  %56 = phi i32 [ %53, %52 ], [ 1, %54 ]
  store i32 %56, ptr %12, align 4
  br label %57

57:                                               ; preds = %71, %55
  %58 = load double, ptr %7, align 8
  %59 = load i32, ptr %12, align 4
  %60 = mul i32 %59, 3
  %61 = uitofp i32 %60 to double
  %62 = fcmp oge double %58, %61
  br i1 %62, label %63, label %72

63:                                               ; preds = %57
  %64 = load i32, ptr %13, align 4
  %65 = add i32 %64, 1
  store i32 %65, ptr %13, align 4
  %66 = load i32, ptr %12, align 4
  %67 = mul i32 %66, 3
  store i32 %67, ptr %12, align 4
  %68 = load i32, ptr %12, align 4
  %69 = icmp sgt i32 %68, 715827882
  br i1 %69, label %70, label %71

70:                                               ; preds = %63
  br label %72

71:                                               ; preds = %63
  br label %57, !llvm.loop !31

72:                                               ; preds = %70, %57
  %73 = load i32, ptr %13, align 4
  store i32 %73, ptr %10, align 4
  call void @llvm.lifetime.end.p0(i64 4, ptr %13) #8
  call void @llvm.lifetime.end.p0(i64 4, ptr %12) #8
  br label %74

74:                                               ; preds = %72, %46
  %75 = load double, ptr %8, align 8
  %76 = fcmp oge double %75, 0.000000e+00
  br i1 %76, label %77, label %116

77:                                               ; preds = %74
  call void @llvm.lifetime.start.p0(i64 4, ptr %14) #8
  store i32 1, ptr %14, align 4
  call void @llvm.lifetime.start.p0(i64 4, ptr %15) #8
  %78 = load i32, ptr @min_parallel_index_scan_size, align 4
  %79 = icmp sgt i32 %78, 1
  br i1 %79, label %80, label %82

80:                                               ; preds = %77
  %81 = load i32, ptr @min_parallel_index_scan_size, align 4
  br label %83

82:                                               ; preds = %77
  br label %83

83:                                               ; preds = %82, %80
  %84 = phi i32 [ %81, %80 ], [ 1, %82 ]
  store i32 %84, ptr %15, align 4
  br label %85

85:                                               ; preds = %99, %83
  %86 = load double, ptr %8, align 8
  %87 = load i32, ptr %15, align 4
  %88 = mul i32 %87, 3
  %89 = uitofp i32 %88 to double
  %90 = fcmp oge double %86, %89
  br i1 %90, label %91, label %100

91:                                               ; preds = %85
  %92 = load i32, ptr %14, align 4
  %93 = add i32 %92, 1
  store i32 %93, ptr %14, align 4
  %94 = load i32, ptr %15, align 4
  %95 = mul i32 %94, 3
  store i32 %95, ptr %15, align 4
  %96 = load i32, ptr %15, align 4
  %97 = icmp sgt i32 %96, 715827882
  br i1 %97, label %98, label %99

98:                                               ; preds = %91
  br label %100

99:                                               ; preds = %91
  br label %85, !llvm.loop !32

100:                                              ; preds = %98, %85
  %101 = load i32, ptr %10, align 4
  %102 = icmp sgt i32 %101, 0
  br i1 %102, label %103, label %113

103:                                              ; preds = %100
  %104 = load i32, ptr %10, align 4
  %105 = load i32, ptr %14, align 4
  %106 = icmp slt i32 %104, %105
  br i1 %106, label %107, label %109

107:                                              ; preds = %103
  %108 = load i32, ptr %10, align 4
  br label %111

109:                                              ; preds = %103
  %110 = load i32, ptr %14, align 4
  br label %111

111:                                              ; preds = %109, %107
  %112 = phi i32 [ %108, %107 ], [ %110, %109 ]
  store i32 %112, ptr %10, align 4
  br label %115

113:                                              ; preds = %100
  %114 = load i32, ptr %14, align 4
  store i32 %114, ptr %10, align 4
  br label %115

115:                                              ; preds = %113, %111
  call void @llvm.lifetime.end.p0(i64 4, ptr %15) #8
  call void @llvm.lifetime.end.p0(i64 4, ptr %14) #8
  br label %116

116:                                              ; preds = %115, %74
  br label %117

117:                                              ; preds = %116, %20
  %118 = load i32, ptr %10, align 4
  %119 = load i32, ptr %9, align 4
  %120 = icmp slt i32 %118, %119
  br i1 %120, label %121, label %123

121:                                              ; preds = %117
  %122 = load i32, ptr %10, align 4
  br label %125

123:                                              ; preds = %117
  %124 = load i32, ptr %9, align 4
  br label %125

125:                                              ; preds = %123, %121
  %126 = phi i32 [ %122, %121 ], [ %124, %123 ]
  store i32 %126, ptr %10, align 4
  %127 = load i32, ptr %10, align 4
  store i32 %127, ptr %5, align 4
  store i32 1, ptr %11, align 4
  br label %128

128:                                              ; preds = %125, %45
  call void @llvm.lifetime.end.p0(i64 4, ptr %10) #8
  %129 = load i32, ptr %5, align 4
  ret i32 %129
}