; Function Attrs: nofree norecurse nosync nounwind memory(read, inaccessiblemem: none) uwtable
define dso_local i32 @compute_parallel_worker(ptr noundef readonly captures(none) %0, double noundef %1, double noundef %2, i32 noundef %3) local_unnamed_addr #4 {
  %5 = getelementptr inbounds nuw i8, ptr %0, i64 240
  %6 = load i32, ptr %5, align 8
  %.not = icmp eq i32 %6, -1
  br i1 %.not, label %7, label %49

7:                                                ; preds = %4
  %8 = getelementptr inbounds nuw i8, ptr %0, i64 4
  %9 = load i32, ptr %8, align 4
  %10 = icmp eq i32 %9, 0
  br i1 %10, label %11, label %23

11:                                               ; preds = %7
  %12 = fcmp ult double %1, 0.000000e+00
  br i1 %12, label %17, label %13

13:                                               ; preds = %11
  %14 = load i32, ptr @min_parallel_table_scan_size, align 4
  %15 = sitofp i32 %14 to double
  %16 = fcmp olt double %1, %15
  br i1 %16, label %51, label %17

17:                                               ; preds = %13, %11
  %18 = fcmp ult double %2, 0.000000e+00
  br i1 %18, label %23, label %19

19:                                               ; preds = %17
  %20 = load i32, ptr @min_parallel_index_scan_size, align 4
  %21 = sitofp i32 %20 to double
  %22 = fcmp olt double %2, %21
  br i1 %22, label %51, label %23

23:                                               ; preds = %19, %17, %7
  %24 = fcmp ult double %1, 0.000000e+00
  br i1 %24, label %.loopexit, label %25

25:                                               ; preds = %23
  %26 = load i32, ptr @min_parallel_table_scan_size, align 4
  %27 = tail call i32 @llvm.smax.i32(i32 %26, i32 1)
  br label %28

28:                                               ; preds = %32, %25
  %.034 = phi i32 [ %27, %25 ], [ %29, %32 ]
  %.032 = phi i32 [ 1, %25 ], [ %33, %32 ]
  %29 = mul i32 %.034, 3
  %30 = uitofp i32 %29 to double
  %31 = fcmp ult double %1, %30
  br i1 %31, label %.loopexit, label %32

32:                                               ; preds = %28
  %33 = add i32 %.032, 1
  %34 = icmp sgt i32 %29, 715827882
  br i1 %34, label %.loopexit, label %28, !llvm.loop !16

.loopexit:                                        ; preds = %28, %32, %23
  %.136 = phi i32 [ 0, %23 ], [ %.032, %28 ], [ %33, %32 ]
  %35 = fcmp ult double %2, 0.000000e+00
  br i1 %35, label %49, label %36

36:                                               ; preds = %.loopexit
  %37 = load i32, ptr @min_parallel_index_scan_size, align 4
  %38 = tail call i32 @llvm.smax.i32(i32 %37, i32 1)
  br label %39

39:                                               ; preds = %43, %36
  %.031 = phi i32 [ 1, %36 ], [ %44, %43 ]
  %.0 = phi i32 [ %38, %36 ], [ %40, %43 ]
  %40 = mul i32 %.0, 3
  %41 = uitofp i32 %40 to double
  %42 = fcmp ult double %2, %41
  br i1 %42, label %46, label %43

43:                                               ; preds = %39
  %44 = add i32 %.031, 1
  %45 = icmp sgt i32 %40, 715827882
  br i1 %45, label %46, label %39, !llvm.loop !17

46:                                               ; preds = %43, %39
  %.1 = phi i32 [ %44, %43 ], [ %.031, %39 ]
  %47 = icmp sgt i32 %.136, 0
  %48 = tail call i32 @llvm.smin.i32(i32 %.136, i32 %.1)
  %.2 = select i1 %47, i32 %48, i32 %.1
  br label %49

49:                                               ; preds = %4, %.loopexit, %46
  %.035 = phi i32 [ %.2, %46 ], [ %.136, %.loopexit ], [ %6, %4 ]
  %50 = tail call i32 @llvm.smin.i32(i32 %.035, i32 %3)
  br label %51

51:                                               ; preds = %13, %19, %49
  %.037 = phi i32 [ %50, %49 ], [ 0, %19 ], [ 0, %13 ]
  ret i32 %.037
}